target datalayout = "e-m:e-p270:32:32-p271:32:32-p272:64:64-i64:64-i128:128-f80:128-n8:16:32:64-S128"
target triple = "x86_64-pc-linux-gnu"

%struct.mpv_counter_info = type { i64, i32, i32, i32, i32 }
%struct.mpv_decomp_state = type { i32, i8, i64, [0 x %struct.mpv_decomp_kilo] }
%struct.mpv_decomp_kilo = type { i64, ptr }
%struct.mpv = type { i32, i32, i32, i32, i32, i32, i32, i32, i32, [28 x i8] }
%struct.unaligned = type { i64 }
%struct.unaligned.2 = type { i64 }
%struct.unaligned.3 = type { i32 }
%struct.unaligned.4 = type { i16 }

; Function Attrs: alwaysinline nounwind uwtable
define internal void @unaligned_store_u64a(ptr noundef %0, i64 noundef %1) #2 {
  %3 = alloca ptr, align 8
  %4 = alloca i64, align 8
  %5 = alloca ptr, align 8
  store ptr %0, ptr %3, align 8
  store i64 %1, ptr %4, align 8
  call void @llvm.lifetime.start.p0(i64 8, ptr %5) #11
  %6 = load ptr, ptr %3, align 8
  store ptr %6, ptr %5, align 8
  %7 = load i64, ptr %4, align 8
  %8 = load ptr, ptr %5, align 8
  %9 = getelementptr inbounds nuw %struct.unaligned, ptr %8, i32 0, i32 0
  store i64 %7, ptr %9, align 1
  call void @llvm.lifetime.end.p0(i64 8, ptr %5) #11
  ret void
}

; Function Attrs: alwaysinline nounwind uwtable
define internal void @mmb_store(ptr noundef %0, i64 noundef %1) #2 {
  %3 = alloca ptr, align 8
  %4 = alloca i64, align 8
  store ptr %0, ptr %3, align 8
  store i64 %1, ptr %4, align 8
  %5 = load ptr, ptr %3, align 8
  %6 = load i64, ptr %4, align 8
  call void @unaligned_store_u64a(ptr noundef %5, i64 noundef %6)
  ret void
}

; Function Attrs: alwaysinline nounwind uwtable
define internal i32 @mmbit_flat_size(i32 noundef %0) #2 {
  %2 = alloca i32, align 4
  store i32 %0, ptr %2, align 4
  %3 = load i32, ptr %2, align 4
  %4 = add i32 %3, 7
  %5 = and i32 %4, -8
  %6 = udiv i32 %5, 8
  ret i32 %6
}

; Function Attrs: alwaysinline nounwind uwtable
define internal i32 @mmbit_is_flat_model(i32 noundef %0) #2 {
  %2 = alloca i32, align 4
  store i32 %0, ptr %2, align 4
  %3 = load i32, ptr %2, align 4
  %4 = icmp ule i32 %3, 256
  %5 = zext i1 %4 to i32
  ret i32 %5
}

; Function Attrs: alwaysinline nounwind uwtable
define internal zeroext i16 @unaligned_load_u16(ptr noundef %0) #2 {
  %2 = alloca ptr, align 8
  %3 = alloca ptr, align 8
  store ptr %0, ptr %2, align 8
  call void @llvm.lifetime.start.p0(i64 8, ptr %3) #11
  %4 = load ptr, ptr %2, align 8
  store ptr %4, ptr %3, align 8
  %5 = load ptr, ptr %3, align 8
  %6 = getelementptr inbounds nuw %struct.unaligned.4, ptr %5, i32 0, i32 0
  %7 = load i16, ptr %6, align 1
  call void @llvm.lifetime.end.p0(i64 8, ptr %3) #11
  ret i16 %7
}

; Function Attrs: alwaysinline nounwind uwtable
define internal i32 @unaligned_load_u32(ptr noundef %0) #2 {
  %2 = alloca ptr, align 8
  %3 = alloca ptr, align 8
  store ptr %0, ptr %2, align 8
  call void @llvm.lifetime.start.p0(i64 8, ptr %3) #11
  %4 = load ptr, ptr %2, align 8
  store ptr %4, ptr %3, align 8
  %5 = load ptr, ptr %3, align 8
  %6 = getelementptr inbounds nuw %struct.unaligned.3, ptr %5, i32 0, i32 0
  %7 = load i32, ptr %6, align 1
  call void @llvm.lifetime.end.p0(i64 8, ptr %3) #11
  ret i32 %7
}

; Function Attrs: alwaysinline nounwind uwtable
define internal i64 @unaligned_load_u64a(ptr noundef %0) #2 {
  %2 = alloca ptr, align 8
  %3 = alloca ptr, align 8
  store ptr %0, ptr %2, align 8
  call void @llvm.lifetime.start.p0(i64 8, ptr %3) #11
  %4 = load ptr, ptr %2, align 8
  store ptr %4, ptr %3, align 8
  %5 = load ptr, ptr %3, align 8
  %6 = getelementptr inbounds nuw %struct.unaligned.2, ptr %5, i32 0, i32 0
  %7 = load i64, ptr %6, align 1
  call void @llvm.lifetime.end.p0(i64 8, ptr %3) #11
  ret i64 %7
}

; Function Attrs: alwaysinline nounwind uwtable
define internal void @mmbit_clear(ptr noundef %0, i32 noundef %1) #2 {
  %3 = alloca ptr, align 8
  %4 = alloca i32, align 4
  store ptr %0, ptr %3, align 8
  store i32 %1, ptr %4, align 4
  br label %5

5:                                                ; preds = %2
  br label %6

6:                                                ; preds = %5
  br label %7

7:                                                ; preds = %6
  br label %8

8:                                                ; preds = %7
  %9 = load i32, ptr %4, align 4
  %10 = icmp ne i32 %9, 0
  br i1 %10, label %12, label %11

11:                                               ; preds = %8
  br label %23

12:                                               ; preds = %8
  %13 = load i32, ptr %4, align 4
  %14 = call i32 @mmbit_is_flat_model(i32 noundef %13)
  %15 = icmp ne i32 %14, 0
  br i1 %15, label %16, label %21

16:                                               ; preds = %12
  %17 = load ptr, ptr %3, align 8
  %18 = load i32, ptr %4, align 4
  %19 = call i32 @mmbit_flat_size(i32 noundef %18)
  %20 = zext i32 %19 to i64
  call void @llvm.memset.p0.i64(ptr align 1 %17, i8 0, i64 %20, i1 false)
  br label %23

21:                                               ; preds = %12
  %22 = load ptr, ptr %3, align 8
  call void @mmb_store(ptr noundef %22, i64 noundef 0)
  br label %23

23:                                               ; preds = %21, %16, %11
  ret void
}

; Function Attrs: alwaysinline nounwind uwtable
define internal i64 @partial_load_u64a(ptr noundef %0, i32 noundef %1) #2 {
  %3 = alloca i64, align 8
  %4 = alloca ptr, align 8
  %5 = alloca i32, align 4
  %6 = alloca i64, align 8
  %7 = alloca i32, align 4
  store ptr %0, ptr %4, align 8
  store i32 %1, ptr %5, align 4
  call void @llvm.lifetime.start.p0(i64 8, ptr %6) #11
  %8 = load i32, ptr %5, align 4
  switch i32 %8, label %83 [
    i32 8, label %9
    i32 7, label %13
    i32 6, label %32
    i32 5, label %44
    i32 4, label %56
    i32 3, label %61
    i32 2, label %73
    i32 1, label %78
    i32 0, label %83
  ]

9:                                                ; preds = %2
  %10 = load ptr, ptr %4, align 8
  %11 = call i64 @unaligned_load_u64a(ptr noundef %10)
  store i64 %11, ptr %6, align 8
  %12 = load i64, ptr %6, align 8
  store i64 %12, ptr %3, align 8
  store i32 1, ptr %7, align 4
  br label %84

13:                                               ; preds = %2
  %14 = load ptr, ptr %4, align 8
  %15 = call i32 @unaligned_load_u32(ptr noundef %14)
  %16 = zext i32 %15 to i64
  store i64 %16, ptr %6, align 8
  %17 = load ptr, ptr %4, align 8
  %18 = getelementptr inbounds i8, ptr %17, i64 4
  %19 = call zeroext i16 @unaligned_load_u16(ptr noundef %18)
  %20 = zext i16 %19 to i64
  %21 = shl i64 %20, 32
  %22 = load i64, ptr %6, align 8
  %23 = or i64 %22, %21
  store i64 %23, ptr %6, align 8
  %24 = load ptr, ptr %4, align 8
  %25 = getelementptr inbounds i8, ptr %24, i64 6
  %26 = load i8, ptr %25, align 1
  %27 = zext i8 %26 to i64
  %28 = shl i64 %27, 48
  %29 = load i64, ptr %6, align 8
  %30 = or i64 %29, %28
  store i64 %30, ptr %6, align 8
  %31 = load i64, ptr %6, align 8
  store i64 %31, ptr %3, align 8
  store i32 1, ptr %7, align 4
  br label %84

32:                                               ; preds = %2
  %33 = load ptr, ptr %4, align 8
  %34 = call i32 @unaligned_load_u32(ptr noundef %33)
  %35 = zext i32 %34 to i64
  store i64 %35, ptr %6, align 8
  %36 = load ptr, ptr %4, align 8
  %37 = getelementptr inbounds i8, ptr %36, i64 4
  %38 = call zeroext i16 @unaligned_load_u16(ptr noundef %37)
  %39 = zext i16 %38 to i64
  %40 = shl i64 %39, 32
  %41 = load i64, ptr %6, align 8
  %42 = or i64 %41, %40
  store i64 %42, ptr %6, align 8
  %43 = load i64, ptr %6, align 8
  store i64 %43, ptr %3, align 8
  store i32 1, ptr %7, align 4
  br label %84

44:                                               ; preds = %2
  %45 = load ptr, ptr %4, align 8
  %46 = call i32 @unaligned_load_u32(ptr noundef %45)
  %47 = zext i32 %46 to i64
  store i64 %47, ptr %6, align 8
  %48 = load ptr, ptr %4, align 8
  %49 = getelementptr inbounds i8, ptr %48, i64 4
  %50 = load i8, ptr %49, align 1
  %51 = zext i8 %50 to i64
  %52 = shl i64 %51, 32
  %53 = load i64, ptr %6, align 8
  %54 = or i64 %53, %52
  store i64 %54, ptr %6, align 8
  %55 = load i64, ptr %6, align 8
  store i64 %55, ptr %3, align 8
  store i32 1, ptr %7, align 4
  br label %84

56:                                               ; preds = %2
  %57 = load ptr, ptr %4, align 8
  %58 = call i32 @unaligned_load_u32(ptr noundef %57)
  %59 = zext i32 %58 to i64
  store i64 %59, ptr %6, align 8
  %60 = load i64, ptr %6, align 8
  store i64 %60, ptr %3, align 8
  store i32 1, ptr %7, align 4
  br label %84

61:                                               ; preds = %2
  %62 = load ptr, ptr %4, align 8
  %63 = call zeroext i16 @unaligned_load_u16(ptr noundef %62)
  %64 = zext i16 %63 to i64
  store i64 %64, ptr %6, align 8
  %65 = load ptr, ptr %4, align 8
  %66 = getelementptr inbounds i8, ptr %65, i64 2
  %67 = load i8, ptr %66, align 1
  %68 = zext i8 %67 to i64
  %69 = shl i64 %68, 16
  %70 = load i64, ptr %6, align 8
  %71 = or i64 %70, %69
  store i64 %71, ptr %6, align 8
  %72 = load i64, ptr %6, align 8
  store i64 %72, ptr %3, align 8
  store i32 1, ptr %7, align 4
  br label %84

73:                                               ; preds = %2
  %74 = load ptr, ptr %4, align 8
  %75 = call zeroext i16 @unaligned_load_u16(ptr noundef %74)
  %76 = zext i16 %75 to i64
  store i64 %76, ptr %6, align 8
  %77 = load i64, ptr %6, align 8
  store i64 %77, ptr %3, align 8
  store i32 1, ptr %7, align 4
  br label %84

78:                                               ; preds = %2
  %79 = load ptr, ptr %4, align 8
  %80 = load i8, ptr %79, align 1
  %81 = zext i8 %80 to i64
  store i64 %81, ptr %6, align 8
  %82 = load i64, ptr %6, align 8
  store i64 %82, ptr %3, align 8
  store i32 1, ptr %7, align 4
  br label %84

83:                                               ; preds = %2, %2
  store i64 0, ptr %3, align 8
  store i32 1, ptr %7, align 4
  br label %84

84:                                               ; preds = %83, %78, %73, %61, %56, %44, %32, %13, %9
  call void @llvm.lifetime.end.p0(i64 8, ptr %6) #11
  %85 = load i64, ptr %3, align 8
  ret i64 %85
}

; Function Attrs: alwaysinline nounwind uwtable
define internal ptr @get_counter_n(ptr noundef %0, ptr noundef %1, i32 noundef %2) #2 {
  %4 = alloca ptr, align 8
  %5 = alloca ptr, align 8
  %6 = alloca i32, align 4
  store ptr %0, ptr %4, align 8
  store ptr %1, ptr %5, align 8
  store i32 %2, ptr %6, align 4
  %7 = load ptr, ptr %4, align 8
  %8 = load ptr, ptr %5, align 8
  %9 = call ptr @get_counter_info(ptr noundef %8)
  %10 = load i32, ptr %6, align 4
  %11 = zext i32 %10 to i64
  %12 = getelementptr inbounds nuw %struct.mpv_counter_info, ptr %9, i64 %11
  %13 = getelementptr inbounds nuw %struct.mpv_counter_info, ptr %12, i32 0, i32 2
  %14 = load i32, ptr %13, align 4
  %15 = zext i32 %14 to i64
  %16 = getelementptr inbounds nuw i8, ptr %7, i64 %15
  ret ptr %16
}

; Function Attrs: alwaysinline nounwind uwtable
define internal ptr @get_counter_info(ptr noundef %0) #2 {
  %2 = alloca ptr, align 8
  store ptr %0, ptr %2, align 8
  %3 = load ptr, ptr %2, align 8
  %4 = getelementptr inbounds %struct.mpv, ptr %3, i64 1
  %5 = load ptr, ptr %2, align 8
  %6 = getelementptr inbounds nuw %struct.mpv, ptr %5, i32 0, i32 0
  %7 = load i32, ptr %6, align 32
  %8 = zext i32 %7 to i64
  %9 = mul i64 %8, 64
  %10 = getelementptr inbounds nuw i8, ptr %4, i64 %9
  ret ptr %10
}

; Function Attrs: alwaysinline nounwind uwtable
define internal void @mpvLoadState(ptr noundef %0, ptr noundef %1, ptr noundef %2) #2 {
  %4 = alloca ptr, align 8
  %5 = alloca ptr, align 8
  %6 = alloca ptr, align 8
  %7 = alloca ptr, align 8
  %8 = alloca ptr, align 8
  %9 = alloca ptr, align 8
  %10 = alloca ptr, align 8
  %11 = alloca i32, align 4
  %12 = alloca i32, align 4
  %13 = alloca ptr, align 8
  store ptr %0, ptr %4, align 8
  store ptr %1, ptr %5, align 8
  store ptr %2, ptr %6, align 8
  call void @llvm.lifetime.start.p0(i64 8, ptr %7) #11
  %14 = load ptr, ptr %5, align 8
  %15 = getelementptr inbounds nuw i8, ptr %14, i64 64
  store ptr %15, ptr %7, align 8
  call void @llvm.lifetime.start.p0(i64 8, ptr %8) #11
  %16 = load ptr, ptr %7, align 8
  %17 = call ptr @get_counter_info(ptr noundef %16)
  store ptr %17, ptr %8, align 8
  call void @llvm.lifetime.start.p0(i64 8, ptr %9) #11
  %18 = load ptr, ptr %4, align 8
  %19 = load ptr, ptr %7, align 8
  %20 = call ptr @get_counter_n(ptr noundef %18, ptr noundef %19, i32 noundef 0)
  store ptr %20, ptr %9, align 8
  call void @llvm.lifetime.start.p0(i64 8, ptr %10) #11
  %21 = load ptr, ptr %6, align 8
  store ptr %21, ptr %10, align 8
  call void @llvm.lifetime.start.p0(i64 4, ptr %11) #11
  store i32 0, ptr %11, align 4
  br label %22

22:                                               ; preds = %50, %3
  %23 = load i32, ptr %11, align 4
  %24 = load ptr, ptr %7, align 8
  %25 = getelementptr inbounds nuw %struct.mpv, ptr %24, i32 0, i32 1
  %26 = load i32, ptr %25, align 4
  %27 = icmp ult i32 %23, %26
  br i1 %27, label %29, label %28

28:                                               ; preds = %22
  call void @llvm.lifetime.end.p0(i64 4, ptr %11) #11
  br label %53

29:                                               ; preds = %22
  call void @llvm.lifetime.start.p0(i64 4, ptr %12) #11
  %30 = load ptr, ptr %8, align 8
  %31 = load i32, ptr %11, align 4
  %32 = zext i32 %31 to i64
  %33 = getelementptr inbounds nuw %struct.mpv_counter_info, ptr %30, i64 %32
  %34 = getelementptr inbounds nuw %struct.mpv_counter_info, ptr %33, i32 0, i32 1
  %35 = load i32, ptr %34, align 8
  store i32 %35, ptr %12, align 4
  %36 = load ptr, ptr %10, align 8
  %37 = load i32, ptr %12, align 4
  %38 = call i64 @partial_load_u64a(ptr noundef %36, i32 noundef %37)
  %39 = load ptr, ptr %9, align 8
  %40 = load i32, ptr %11, align 4
  %41 = zext i32 %40 to i64
  %42 = getelementptr inbounds nuw i64, ptr %39, i64 %41
  store i64 %38, ptr %42, align 8
  br label %43

43:                                               ; preds = %29
  br label %44

44:                                               ; preds = %43
  br label %45

45:                                               ; preds = %44
  %46 = load i32, ptr %12, align 4
  %47 = load ptr, ptr %10, align 8
  %48 = zext i32 %46 to i64
  %49 = getelementptr inbounds nuw i8, ptr %47, i64 %48
  store ptr %49, ptr %10, align 8
  call void @llvm.lifetime.end.p0(i64 4, ptr %12) #11
  br label %50

50:                                               ; preds = %45
  %51 = load i32, ptr %11, align 4
  %52 = add i32 %51, 1
  store i32 %52, ptr %11, align 4
  br label %22

53:                                               ; preds = %28
  %54 = load ptr, ptr %4, align 8
  %55 = getelementptr inbounds nuw %struct.mpv_decomp_state, ptr %54, i32 0, i32 1
  store i8 0, ptr %55, align 4
  %56 = load ptr, ptr %4, align 8
  %57 = getelementptr inbounds nuw %struct.mpv_decomp_state, ptr %56, i32 0, i32 2
  store i64 0, ptr %57, align 8
  %58 = load ptr, ptr %4, align 8
  %59 = getelementptr inbounds nuw %struct.mpv_decomp_state, ptr %58, i32 0, i32 0
  store i32 0, ptr %59, align 8
  call void @llvm.lifetime.start.p0(i64 8, ptr %13) #11
  %60 = load ptr, ptr %4, align 8
  %61 = load ptr, ptr %7, align 8
  %62 = getelementptr inbounds nuw %struct.mpv, ptr %61, i32 0, i32 4
  %63 = load i32, ptr %62, align 16
  %64 = zext i32 %63 to i64
  %65 = getelementptr inbounds nuw i8, ptr %60, i64 %64
  store ptr %65, ptr %13, align 8
  %66 = load ptr, ptr %13, align 8
  %67 = load ptr, ptr %7, align 8
  %68 = getelementptr inbounds nuw %struct.mpv, ptr %67, i32 0, i32 0
  %69 = load i32, ptr %68, align 32
  call void @mmbit_clear(ptr noundef %66, i32 noundef %69)
  call void @llvm.lifetime.end.p0(i64 8, ptr %13) #11
  call void @llvm.lifetime.end.p0(i64 8, ptr %10) #11
  call void @llvm.lifetime.end.p0(i64 8, ptr %9) #11
  call void @llvm.lifetime.end.p0(i64 8, ptr %8) #11
  call void @llvm.lifetime.end.p0(i64 8, ptr %7) #11
  ret void
}

; Function Attrs: nounwind uwtable
define hidden signext i8 @nfaExecMpv_expandState(ptr noundef %0, ptr noundef %1, ptr noundef %2, i64 noundef %3, i8 noundef zeroext %4) #0 {
  %6 = alloca ptr, align 8
  %7 = alloca ptr, align 8
  %8 = alloca ptr, align 8
  %9 = alloca i64, align 8
  %10 = alloca i8, align 1
  store ptr %0, ptr %6, align 8
  store ptr %1, ptr %7, align 8
  store ptr %2, ptr %8, align 8
  store i64 %3, ptr %9, align 8
  store i8 %4, ptr %10, align 1
  %11 = load ptr, ptr %7, align 8
  %12 = load ptr, ptr %6, align 8
  %13 = load ptr, ptr %8, align 8
  call void @mpvLoadState(ptr noundef %11, ptr noundef %12, ptr noundef %13)
  ret i8 0
}