; Function Attrs: nofree norecurse nosync nounwind memory(argmem: readwrite) uwtable
define hidden noundef signext i8 @nfaExecMpv_expandState(ptr noundef readonly captures(none) %0, ptr noundef writeonly captures(none) %1, ptr noundef readonly captures(none) %2, i64 noundef %3, i8 noundef zeroext %4) local_unnamed_addr #2 {
  %6 = getelementptr inbounds nuw i8, ptr %0, i64 64
  %7 = getelementptr inbounds nuw i8, ptr %0, i64 128
  %8 = load i32, ptr %6, align 32
  %9 = zext i32 %8 to i64
  %10 = shl nuw nsw i64 %9, 6
  %11 = getelementptr inbounds nuw i8, ptr %7, i64 %10
  %12 = getelementptr inbounds nuw i8, ptr %11, i64 12
  %13 = load i32, ptr %12, align 4
  %14 = zext i32 %13 to i64
  %15 = getelementptr inbounds nuw i8, ptr %1, i64 %14
  %16 = getelementptr inbounds nuw i8, ptr %0, i64 68
  %17 = load i32, ptr %16, align 4
  %.not = icmp eq i32 %17, 0
  br i1 %.not, label %mpvLoadState.exit, label %.lr.ph

.lr.ph:                                           ; preds = %5, %partial_load_u64a.exit
  %indvars.iv = phi i64 [ %indvars.iv.next, %partial_load_u64a.exit ], [ 0, %5 ]
  %.0.i5 = phi ptr [ %70, %partial_load_u64a.exit ], [ %2, %5 ]
  %18 = getelementptr inbounds nuw %struct.mpv_counter_info, ptr %11, i64 %indvars.iv, i32 1
  %19 = load i32, ptr %18, align 8
  switch i32 %19, label %partial_load_u64a.exit [
    i32 8, label %20
    i32 7, label %22
    i32 6, label %35
    i32 5, label %43
    i32 4, label %51
    i32 3, label %54
    i32 2, label %62
    i32 1, label %65
  ]

20:                                               ; preds = %.lr.ph
  %21 = load i64, ptr %.0.i5, align 1
  br label %partial_load_u64a.exit

22:                                               ; preds = %.lr.ph
  %23 = load i32, ptr %.0.i5, align 1
  %24 = zext i32 %23 to i64
  %25 = getelementptr inbounds nuw i8, ptr %.0.i5, i64 4
  %26 = load i16, ptr %25, align 1
  %27 = zext i16 %26 to i64
  %28 = shl nuw nsw i64 %27, 32
  %29 = or disjoint i64 %28, %24
  %30 = getelementptr inbounds nuw i8, ptr %.0.i5, i64 6
  %31 = load i8, ptr %30, align 1
  %32 = zext i8 %31 to i64
  %33 = shl nuw nsw i64 %32, 48
  %34 = or disjoint i64 %29, %33
  br label %partial_load_u64a.exit

35:                                               ; preds = %.lr.ph
  %36 = load i32, ptr %.0.i5, align 1
  %37 = zext i32 %36 to i64
  %38 = getelementptr inbounds nuw i8, ptr %.0.i5, i64 4
  %39 = load i16, ptr %38, align 1
  %40 = zext i16 %39 to i64
  %41 = shl nuw nsw i64 %40, 32
  %42 = or disjoint i64 %41, %37
  br label %partial_load_u64a.exit

43:                                               ; preds = %.lr.ph
  %44 = load i32, ptr %.0.i5, align 1
  %45 = zext i32 %44 to i64
  %46 = getelementptr inbounds nuw i8, ptr %.0.i5, i64 4
  %47 = load i8, ptr %46, align 1
  %48 = zext i8 %47 to i64
  %49 = shl nuw nsw i64 %48, 32
  %50 = or disjoint i64 %49, %45
  br label %partial_load_u64a.exit

51:                                               ; preds = %.lr.ph
  %52 = load i32, ptr %.0.i5, align 1
  %53 = zext i32 %52 to i64
  br label %partial_load_u64a.exit

54:                                               ; preds = %.lr.ph
  %55 = load i16, ptr %.0.i5, align 1
  %56 = zext i16 %55 to i64
  %57 = getelementptr inbounds nuw i8, ptr %.0.i5, i64 2
  %58 = load i8, ptr %57, align 1
  %59 = zext i8 %58 to i64
  %60 = shl nuw nsw i64 %59, 16
  %61 = or disjoint i64 %60, %56
  br label %partial_load_u64a.exit

62:                                               ; preds = %.lr.ph
  %63 = load i16, ptr %.0.i5, align 1
  %64 = zext i16 %63 to i64
  br label %partial_load_u64a.exit

65:                                               ; preds = %.lr.ph
  %66 = load i8, ptr %.0.i5, align 1
  %67 = zext i8 %66 to i64
  br label %partial_load_u64a.exit

partial_load_u64a.exit:                           ; preds = %.lr.ph, %20, %22, %35, %43, %51, %54, %62, %65
  %.0.i3 = phi i64 [ %67, %65 ], [ %64, %62 ], [ %61, %54 ], [ %53, %51 ], [ %50, %43 ], [ %42, %35 ], [ %34, %22 ], [ %21, %20 ], [ 0, %.lr.ph ]
  %68 = getelementptr inbounds nuw i64, ptr %15, i64 %indvars.iv
  store i64 %.0.i3, ptr %68, align 8
  %69 = zext i32 %19 to i64
  %70 = getelementptr inbounds nuw i8, ptr %.0.i5, i64 %69
  %indvars.iv.next = add nuw nsw i64 %indvars.iv, 1
  %71 = load i32, ptr %16, align 4
  %72 = zext i32 %71 to i64
  %73 = icmp samesign ult i64 %indvars.iv.next, %72
  br i1 %73, label %.lr.ph, label %mpvLoadState.exit

mpvLoadState.exit:                                ; preds = %partial_load_u64a.exit, %5
  %74 = getelementptr inbounds nuw i8, ptr %1, i64 4
  store i8 0, ptr %74, align 4
  %75 = getelementptr inbounds nuw i8, ptr %1, i64 8
  store i64 0, ptr %75, align 8
  store i32 0, ptr %1, align 8
  %76 = getelementptr inbounds nuw i8, ptr %0, i64 80
  %77 = load i32, ptr %76, align 16
  %78 = zext i32 %77 to i64
  %79 = getelementptr inbounds nuw i8, ptr %1, i64 %78
  %80 = load i32, ptr %6, align 32
  %.not.i = icmp eq i32 %80, 0
  br i1 %.not.i, label %mmbit_clear.exit, label %81

81:                                               ; preds = %mpvLoadState.exit
  %82 = icmp ugt i32 %80, 256
  br i1 %82, label %87, label %83

83:                                               ; preds = %81
  %84 = add nuw nsw i32 %80, 7
  %85 = lshr i32 %84, 3
  %86 = zext nneg i32 %85 to i64
  tail call void @llvm.memset.p0.i64(ptr nonnull align 1 %79, i8 0, i64 %86, i1 false)
  br label %mmbit_clear.exit

87:                                               ; preds = %81
  store i64 0, ptr %79, align 1
  br label %mmbit_clear.exit

mmbit_clear.exit:                                 ; preds = %mpvLoadState.exit, %83, %87
  ret i8 0
}